; Function Attrs: nounwind uwtable
define i32 @Pa_SetStreamFinishedCallback(ptr noundef %0, ptr noundef %1) local_unnamed_addr #3 {
  %3 = load i32, ptr @initializationCount_, align 4
  %.not.i = icmp eq i32 %3, 0
  br i1 %.not.i, label %PaUtil_ValidateStreamPointer.exit.thread, label %4

4:                                                ; preds = %2
  %5 = icmp eq ptr %0, null
  br i1 %5, label %PaUtil_ValidateStreamPointer.exit.thread, label %6

6:                                                ; preds = %4
  %7 = load i64, ptr %0, align 8
  %.not3.i = icmp eq i64 %7, 405222981
  br i1 %.not3.i, label %PaUtil_ValidateStreamPointer.exit, label %PaUtil_ValidateStreamPointer.exit.thread

PaUtil_ValidateStreamPointer.exit:                ; preds = %6
  %8 = getelementptr inbounds nuw i8, ptr %0, i64 16
  %9 = load ptr, ptr %8, align 8
  %10 = getelementptr inbounds nuw i8, ptr %9, i64 32
  %11 = load ptr, ptr %10, align 8
  %12 = tail call i32 %11(ptr noundef nonnull %0) #12
  %13 = icmp eq i32 %12, 0
  %spec.store.select = select i1 %13, i32 -9982, i32 %12
  %14 = icmp eq i32 %spec.store.select, 1
  br i1 %14, label %15, label %PaUtil_ValidateStreamPointer.exit.thread

15:                                               ; preds = %PaUtil_ValidateStreamPointer.exit
  %16 = getelementptr inbounds nuw i8, ptr %0, i64 32
  store ptr %1, ptr %16, align 8
  br label %PaUtil_ValidateStreamPointer.exit.thread

PaUtil_ValidateStreamPointer.exit.thread:         ; preds = %6, %4, %2, %PaUtil_ValidateStreamPointer.exit, %15
  %.0 = phi i32 [ 0, %15 ], [ %spec.store.select, %PaUtil_ValidateStreamPointer.exit ], [ -9988, %6 ], [ -9988, %4 ], [ -10000, %2 ]
  ret i32 %.0
}